; Function Attrs: nounwind uwtable
define nonnull ptr @l_Except_isOk___rarg___boxed(ptr noundef %0) #0 {
  %2 = ptrtoint ptr %0 to i64
  %3 = and i64 %2, 1
  %.not.i.i = icmp eq i64 %3, 0
  br i1 %.not.i.i, label %6, label %l_Except_isOk___rarg.exit.thread

l_Except_isOk___rarg.exit.thread:                 ; preds = %1
  %4 = and i64 %2, 8589934590
  %5 = icmp ne i64 %4, 0
  br label %lean_dec.exit

6:                                                ; preds = %1
  %7 = getelementptr i8, ptr %0, i64 4
  %.val.i.i = load i32, ptr %7, align 4
  %8 = icmp ugt i32 %.val.i.i, 16777215
  %9 = load i32, ptr %0, align 4, !tbaa !4
  %10 = icmp sgt i32 %9, 1
  br i1 %10, label %11, label %13, !prof !13

11:                                               ; preds = %6
  %12 = add nsw i32 %9, -1
  store i32 %12, ptr %0, align 4, !tbaa !4
  br label %lean_dec.exit

13:                                               ; preds = %6
  %.not.i = icmp eq i32 %9, 0
  br i1 %.not.i, label %lean_dec.exit, label %14

14:                                               ; preds = %13
  tail call void @lean_dec_ref_cold(ptr noundef nonnull %0) #5
  br label %lean_dec.exit

lean_dec.exit:                                    ; preds = %14, %13, %11, %l_Except_isOk___rarg.exit.thread
  %..i5.in = phi i1 [ %5, %l_Except_isOk___rarg.exit.thread ], [ %8, %11 ], [ %8, %13 ], [ %8, %14 ]
  %15 = select i1 %..i5.in, ptr inttoptr (i64 3 to ptr), ptr inttoptr (i64 1 to ptr)
  ret ptr %15
}